; Function Attrs: mustprogress nounwind uwtable
define void @_ZN3tsi24TlsSessionKeyLoggerCacheD2Ev(ptr noundef nonnull align 8 dereferenceable(64) initializes((0, 8)) %0) unnamed_addr #12 align 2 personality ptr @__gxx_personality_v0 {
  store ptr getelementptr inbounds nuw inrange(-16, 16) (i8, ptr @_ZTVN3tsi24TlsSessionKeyLoggerCacheE, i64 16), ptr %0, align 8, !tbaa !8
  %2 = load ptr, ptr @_ZN3tsi12_GLOBAL__N_130g_tls_session_key_log_cache_muE, align 8, !tbaa !47
  invoke void @_ZN4absl12lts_202407225Mutex4LockEv(ptr noundef nonnull align 8 dereferenceable(8) %2)
          to label %_ZN4absl12lts_202407229MutexLockC2EPNS0_5MutexE.exit unwind label %12

_ZN4absl12lts_202407229MutexLockC2EPNS0_5MutexE.exit: ; preds = %1
  store ptr null, ptr @_ZN3tsi12_GLOBAL__N_116g_cache_instanceE, align 8, !tbaa !59
  invoke void @_ZN4absl12lts_202407225Mutex6UnlockEv(ptr noundef nonnull align 8 dereferenceable(8) %2)
          to label %_ZN4absl12lts_202407229MutexLockD2Ev.exit unwind label %3

3:                                                ; preds = %_ZN4absl12lts_202407229MutexLockC2EPNS0_5MutexE.exit
  %4 = landingpad { ptr, i32 }
          catch ptr null
  %5 = extractvalue { ptr, i32 } %4, 0
  tail call void @__clang_call_terminate(ptr %5) #28
  unreachable

_ZN4absl12lts_202407229MutexLockD2Ev.exit:        ; preds = %_ZN4absl12lts_202407229MutexLockC2EPNS0_5MutexE.exit
  %6 = getelementptr inbounds nuw i8, ptr %0, i64 16
  %7 = getelementptr inbounds nuw i8, ptr %0, i64 32
  %8 = load ptr, ptr %7, align 8, !tbaa !39
  invoke void @_ZNSt8_Rb_treeINSt7__cxx1112basic_stringIcSt11char_traitsIcESaIcEEESt4pairIKS5_PN3tsi24TlsSessionKeyLoggerCache19TlsSessionKeyLoggerEESt10_Select1stISC_ESt4lessIS5_ESaISC_EE8_M_eraseEPSt13_Rb_tree_nodeISC_E(ptr noundef nonnull align 8 dereferenceable(48) %6, ptr noundef %8)
          to label %_ZNSt3mapINSt7__cxx1112basic_stringIcSt11char_traitsIcESaIcEEEPN3tsi24TlsSessionKeyLoggerCache19TlsSessionKeyLoggerESt4lessIS5_ESaISt4pairIKS5_S9_EEED2Ev.exit unwind label %9

9:                                                ; preds = %_ZN4absl12lts_202407229MutexLockD2Ev.exit
  %10 = landingpad { ptr, i32 }
          catch ptr null
  %11 = extractvalue { ptr, i32 } %10, 0
  tail call void @__clang_call_terminate(ptr %11) #28
  unreachable

_ZNSt3mapINSt7__cxx1112basic_stringIcSt11char_traitsIcESaIcEEEPN3tsi24TlsSessionKeyLoggerCache19TlsSessionKeyLoggerESt4lessIS5_ESaISt4pairIKS5_S9_EEED2Ev.exit: ; preds = %_ZN4absl12lts_202407229MutexLockD2Ev.exit
  ret void

12:                                               ; preds = %1
  %13 = landingpad { ptr, i32 }
          catch ptr null
  %14 = extractvalue { ptr, i32 } %13, 0
  tail call void @__clang_call_terminate(ptr %14) #28
  unreachable
}